; Function Attrs: mustprogress nounwind uwtable
define dso_local noundef zeroext i1 @_ZNK5vcpkg18InternalFeatureSet18empty_or_only_coreEv(ptr nocapture noundef nonnull readonly align 8 dereferenceable(24) %0) local_unnamed_addr #2 align 2 {
  %2 = alloca %"struct.vcpkg::StringView", align 8
  %3 = load ptr, ptr %0, align 8
  %4 = getelementptr inbounds i8, ptr %0, i64 8
  %5 = load ptr, ptr %4, align 8
  %6 = icmp eq ptr %3, %5
  br i1 %6, label %17, label %7

7:                                                ; preds = %1
  %8 = ptrtoint ptr %5 to i64
  %9 = ptrtoint ptr %3 to i64
  %10 = sub i64 %8, %9
  %11 = icmp eq i64 %10, 32
  br i1 %11, label %12, label %17

12:                                               ; preds = %7
  call void @_ZN5vcpkg10StringViewC1ERKNSt7__cxx1112basic_stringIcSt11char_traitsIcESaIcEEE(ptr noundef nonnull align 8 dereferenceable(16) %2, ptr noundef nonnull align 8 dereferenceable(32) %3) #17
  %13 = load ptr, ptr %2, align 8
  %14 = getelementptr inbounds i8, ptr %2, i64 8
  %15 = load i64, ptr %14, align 8
  %16 = call noundef zeroext i1 @_ZN5vcpkgeqENS_10StringViewES0_(ptr %13, i64 %15, ptr nonnull @.str.8, i64 4) #17
  br label %17

17:                                               ; preds = %7, %12, %1
  %18 = phi i1 [ true, %1 ], [ false, %7 ], [ %16, %12 ]
  ret i1 %18
}